; Function Attrs: mustprogress uwtable
define void @_ZN6casadi16TinyXmlInterfaceC2Ev(ptr noundef nonnull align 8 dereferenceable(808) %0) unnamed_addr #4 align 2 personality ptr @__gxx_personality_v0 {
  tail call void @_ZN6casadi15XmlFileInternalC2Ev(ptr noundef nonnull align 8 dereferenceable(32) %0)
  store ptr getelementptr inbounds ({ [9 x ptr], [3 x ptr] }, ptr @_ZTVN6casadi16TinyXmlInterfaceE, i64 0, i32 0, i64 2), ptr %0, align 8
  %2 = getelementptr inbounds i8, ptr %0, i64 24
  store ptr getelementptr inbounds ({ [9 x ptr], [3 x ptr] }, ptr @_ZTVN6casadi16TinyXmlInterfaceE, i64 0, i32 1, i64 2), ptr %2, align 8
  %3 = getelementptr inbounds i8, ptr %0, i64 32
  invoke void @_ZN8tinyxml211XMLDocumentC1EbNS_10WhitespaceE(ptr noundef nonnull align 8 dereferenceable(776) %3, i1 noundef zeroext true, i32 noundef 0)
          to label %4 unwind label %5

4:                                                ; preds = %1
  ret void

5:                                                ; preds = %1
  %6 = landingpad { ptr, i32 }
          cleanup
  tail call void @_ZN6casadi15XmlFileInternalD2Ev(ptr noundef nonnull align 8 dereferenceable(32) %0) #17
  resume { ptr, i32 } %6
}